; Function Attrs: null_pointer_is_valid sspstrong uwtable
define internal range(i32 0, 5) i32 @uint64_add(ptr noundef writeonly captures(none) initializes((8, 16)) %0, ptr noundef readonly captures(none) %1, ptr noundef readonly captures(none) %2, ptr noundef writeonly captures(none) %3) #0 {
  %5 = getelementptr inbounds nuw i8, ptr %0, i64 8
  %6 = getelementptr inbounds nuw i8, ptr %1, i64 8
  %7 = load i64, ptr %6, align 8
  %8 = getelementptr inbounds nuw i8, ptr %2, i64 8
  %9 = load i64, ptr %8, align 8
  %10 = tail call { i64, i1 } @llvm.uadd.with.overflow.i64(i64 %7, i64 %9)
  %11 = extractvalue { i64, i1 } %10, 1
  %12 = extractvalue { i64, i1 } %10, 0
  store i64 %12, ptr %5, align 8
  br i1 %11, label %13, label %15

13:                                               ; preds = %4
  %14 = tail call noalias ptr (ptr, ptr, ...) @wmem_strdup_printf(ptr noundef null, ptr noundef nonnull @.str.43)
  store ptr %14, ptr %3, align 8
  br label %15

15:                                               ; preds = %4, %13
  %.0 = phi i32 [ 4, %13 ], [ 0, %4 ]
  ret i32 %.0
}